target datalayout = "e-m:e-p270:32:32-p271:32:32-p272:64:64-i64:64-i128:128-f80:128-n8:16:32:64-S128"
target triple = "x86_64-pc-linux-gnu"

%struct.lv_color_t = type { i8, i8, i8 }
%struct.lv_draw_arc_dsc_t = type { %struct.lv_draw_dsc_base_t, %struct.lv_color_t, i32, float, float, %struct.lv_point_t, i16, ptr, i8, i8 }
%struct.lv_draw_dsc_base_t = type { ptr, i32, i32, i32, ptr, i64, ptr }
%struct.lv_point_t = type { i32, i32 }
%struct._lv_draw_task_t = type { ptr, i32, %struct.lv_area_t, %struct.lv_area_t, %struct.lv_area_t, %struct.lv_area_t, i32, ptr, i8, i8 }
%struct.lv_area_t = type { i32, i32, i32, i32 }

; Function Attrs: nounwind uwtable
define void @lv_draw_arc(ptr noundef %0, ptr noundef %1) #0 {
  %3 = alloca ptr, align 8
  %4 = alloca ptr, align 8
  %5 = alloca %struct.lv_area_t, align 4
  %6 = alloca ptr, align 8
  store ptr %0, ptr %3, align 8, !tbaa !3
  store ptr %1, ptr %4, align 8, !tbaa !3
  %7 = load ptr, ptr %4, align 8, !tbaa !3
  %8 = getelementptr inbounds nuw %struct.lv_draw_arc_dsc_t, ptr %7, i32 0, i32 8
  %9 = load i8, ptr %8, align 8, !tbaa !16
  %10 = zext i8 %9 to i32
  %11 = icmp sle i32 %10, 2
  br i1 %11, label %12, label %13

12:                                               ; preds = %2
  br label %85

13:                                               ; preds = %2
  %14 = load ptr, ptr %4, align 8, !tbaa !3
  %15 = getelementptr inbounds nuw %struct.lv_draw_arc_dsc_t, ptr %14, i32 0, i32 2
  %16 = load i32, ptr %15, align 4, !tbaa !7
  %17 = icmp eq i32 %16, 0
  br i1 %17, label %18, label %19

18:                                               ; preds = %13
  br label %85

19:                                               ; preds = %13
  %20 = load ptr, ptr %4, align 8, !tbaa !3
  %21 = getelementptr inbounds nuw %struct.lv_draw_arc_dsc_t, ptr %20, i32 0, i32 3
  %22 = load float, ptr %21, align 8, !tbaa !25
  %23 = load ptr, ptr %4, align 8, !tbaa !3
  %24 = getelementptr inbounds nuw %struct.lv_draw_arc_dsc_t, ptr %23, i32 0, i32 4
  %25 = load float, ptr %24, align 4, !tbaa !26
  %26 = fcmp oeq float %22, %25
  br i1 %26, label %27, label %28

27:                                               ; preds = %19
  br label %85

28:                                               ; preds = %19
  call void @llvm.lifetime.start.p0(i64 16, ptr %5) #5
  %29 = load ptr, ptr %4, align 8, !tbaa !3
  %30 = getelementptr inbounds nuw %struct.lv_draw_arc_dsc_t, ptr %29, i32 0, i32 5
  %31 = getelementptr inbounds nuw %struct.lv_point_t, ptr %30, i32 0, i32 0
  %32 = load i32, ptr %31, align 8, !tbaa !27
  %33 = load ptr, ptr %4, align 8, !tbaa !3
  %34 = getelementptr inbounds nuw %struct.lv_draw_arc_dsc_t, ptr %33, i32 0, i32 6
  %35 = load i16, ptr %34, align 8, !tbaa !28
  %36 = zext i16 %35 to i32
  %37 = sub nsw i32 %32, %36
  %38 = getelementptr inbounds nuw %struct.lv_area_t, ptr %5, i32 0, i32 0
  store i32 %37, ptr %38, align 4, !tbaa !29
  %39 = load ptr, ptr %4, align 8, !tbaa !3
  %40 = getelementptr inbounds nuw %struct.lv_draw_arc_dsc_t, ptr %39, i32 0, i32 5
  %41 = getelementptr inbounds nuw %struct.lv_point_t, ptr %40, i32 0, i32 1
  %42 = load i32, ptr %41, align 4, !tbaa !30
  %43 = load ptr, ptr %4, align 8, !tbaa !3
  %44 = getelementptr inbounds nuw %struct.lv_draw_arc_dsc_t, ptr %43, i32 0, i32 6
  %45 = load i16, ptr %44, align 8, !tbaa !28
  %46 = zext i16 %45 to i32
  %47 = sub nsw i32 %42, %46
  %48 = getelementptr inbounds nuw %struct.lv_area_t, ptr %5, i32 0, i32 1
  store i32 %47, ptr %48, align 4, !tbaa !31
  %49 = load ptr, ptr %4, align 8, !tbaa !3
  %50 = getelementptr inbounds nuw %struct.lv_draw_arc_dsc_t, ptr %49, i32 0, i32 5
  %51 = getelementptr inbounds nuw %struct.lv_point_t, ptr %50, i32 0, i32 0
  %52 = load i32, ptr %51, align 8, !tbaa !27
  %53 = load ptr, ptr %4, align 8, !tbaa !3
  %54 = getelementptr inbounds nuw %struct.lv_draw_arc_dsc_t, ptr %53, i32 0, i32 6
  %55 = load i16, ptr %54, align 8, !tbaa !28
  %56 = zext i16 %55 to i32
  %57 = add nsw i32 %52, %56
  %58 = sub nsw i32 %57, 1
  %59 = getelementptr inbounds nuw %struct.lv_area_t, ptr %5, i32 0, i32 2
  store i32 %58, ptr %59, align 4, !tbaa !32
  %60 = load ptr, ptr %4, align 8, !tbaa !3
  %61 = getelementptr inbounds nuw %struct.lv_draw_arc_dsc_t, ptr %60, i32 0, i32 5
  %62 = getelementptr inbounds nuw %struct.lv_point_t, ptr %61, i32 0, i32 1
  %63 = load i32, ptr %62, align 4, !tbaa !30
  %64 = load ptr, ptr %4, align 8, !tbaa !3
  %65 = getelementptr inbounds nuw %struct.lv_draw_arc_dsc_t, ptr %64, i32 0, i32 6
  %66 = load i16, ptr %65, align 8, !tbaa !28
  %67 = zext i16 %66 to i32
  %68 = add nsw i32 %63, %67
  %69 = sub nsw i32 %68, 1
  %70 = getelementptr inbounds nuw %struct.lv_area_t, ptr %5, i32 0, i32 3
  store i32 %69, ptr %70, align 4, !tbaa !33
  call void @llvm.lifetime.start.p0(i64 8, ptr %6) #5
  %71 = load ptr, ptr %3, align 8, !tbaa !3
  %72 = call ptr @lv_draw_add_task(ptr noundef %71, ptr noundef %5)
  store ptr %72, ptr %6, align 8, !tbaa !3
  %73 = call ptr @lv_malloc(i64 noundef 96)
  %74 = load ptr, ptr %6, align 8, !tbaa !3
  %75 = getelementptr inbounds nuw %struct._lv_draw_task_t, ptr %74, i32 0, i32 7
  store ptr %73, ptr %75, align 8, !tbaa !24
  %76 = load ptr, ptr %6, align 8, !tbaa !3
  %77 = getelementptr inbounds nuw %struct._lv_draw_task_t, ptr %76, i32 0, i32 7
  %78 = load ptr, ptr %77, align 8, !tbaa !24
  %79 = load ptr, ptr %4, align 8, !tbaa !3
  %80 = call ptr @lv_memcpy(ptr noundef %78, ptr noundef %79, i64 noundef 96)
  %81 = load ptr, ptr %6, align 8, !tbaa !3
  %82 = getelementptr inbounds nuw %struct._lv_draw_task_t, ptr %81, i32 0, i32 1
  store i32 8, ptr %82, align 8, !tbaa !21
  %83 = load ptr, ptr %3, align 8, !tbaa !3
  %84 = load ptr, ptr %6, align 8, !tbaa !3
  call void @lv_draw_finalize_task_creation(ptr noundef %83, ptr noundef %84)
  call void @llvm.lifetime.end.p0(i64 8, ptr %6) #5
  call void @llvm.lifetime.end.p0(i64 16, ptr %5) #5
  br label %85

85:                                               ; preds = %28, %27, %18, %12
  ret void
}