; Function Attrs: nounwind uwtable
define void @lv_draw_arc(ptr noundef %0, ptr noundef %1) local_unnamed_addr #0 {
  %3 = alloca %struct.lv_area_t, align 4
  %4 = getelementptr inbounds nuw i8, ptr %1, i64 88
  %5 = load i8, ptr %4, align 8, !tbaa !15
  %6 = icmp ult i8 %5, 3
  br i1 %6, label %38, label %7

7:                                                ; preds = %2
  %8 = getelementptr inbounds nuw i8, ptr %1, i64 52
  %9 = load i32, ptr %8, align 4, !tbaa !3
  %10 = icmp eq i32 %9, 0
  br i1 %10, label %38, label %11

11:                                               ; preds = %7
  %12 = getelementptr inbounds nuw i8, ptr %1, i64 56
  %13 = load float, ptr %12, align 8, !tbaa !21
  %14 = getelementptr inbounds nuw i8, ptr %1, i64 60
  %15 = load float, ptr %14, align 4, !tbaa !22
  %16 = fcmp oeq float %13, %15
  br i1 %16, label %38, label %17

17:                                               ; preds = %11
  call void @llvm.lifetime.start.p0(i64 16, ptr nonnull %3) #4
  %18 = getelementptr inbounds nuw i8, ptr %1, i64 64
  %19 = load i32, ptr %18, align 8, !tbaa !23
  %20 = getelementptr inbounds nuw i8, ptr %1, i64 72
  %21 = load i16, ptr %20, align 8, !tbaa !24
  %22 = zext i16 %21 to i32
  %23 = sub nsw i32 %19, %22
  store i32 %23, ptr %3, align 4, !tbaa !25
  %24 = getelementptr inbounds nuw i8, ptr %1, i64 68
  %25 = load i32, ptr %24, align 4, !tbaa !26
  %26 = sub nsw i32 %25, %22
  %27 = getelementptr inbounds nuw i8, ptr %3, i64 4
  store i32 %26, ptr %27, align 4, !tbaa !27
  %28 = add nsw i32 %22, -1
  %29 = add i32 %28, %19
  %30 = getelementptr inbounds nuw i8, ptr %3, i64 8
  store i32 %29, ptr %30, align 4, !tbaa !28
  %31 = add i32 %28, %25
  %32 = getelementptr inbounds nuw i8, ptr %3, i64 12
  store i32 %31, ptr %32, align 4, !tbaa !29
  %33 = call ptr @lv_draw_add_task(ptr noundef %0, ptr noundef nonnull %3) #4
  %34 = call ptr @lv_malloc(i64 noundef 96) #4
  %35 = getelementptr inbounds nuw i8, ptr %33, i64 80
  store ptr %34, ptr %35, align 8, !tbaa !20
  %36 = call ptr @lv_memcpy(ptr noundef %34, ptr noundef nonnull %1, i64 noundef 96) #4
  %37 = getelementptr inbounds nuw i8, ptr %33, i64 8
  store i32 8, ptr %37, align 8, !tbaa !17
  call void @lv_draw_finalize_task_creation(ptr noundef %0, ptr noundef %33) #4
  call void @llvm.lifetime.end.p0(i64 16, ptr nonnull %3) #4
  br label %38

38:                                               ; preds = %11, %7, %2, %17
  ret void
}